target datalayout = "e-m:e-p270:32:32-p271:32:32-p272:64:64-i64:64-i128:128-f80:128-n8:16:32:64-S128"
target triple = "x86_64-pc-linux-gnu"

@.str.3 = private unnamed_addr constant [33 x i8] c"SDL.thread.create.entry_function\00", align 1
@.str.4 = private unnamed_addr constant [23 x i8] c"SDL.thread.create.name\00", align 1
@.str.5 = private unnamed_addr constant [28 x i8] c"SDL.thread.create.stacksize\00", align 1
@.str.6 = private unnamed_addr constant [27 x i8] c"SDL.thread.create.userdata\00", align 1

; Function Attrs: nounwind uwtable
define hidden ptr @SDL_CreateThreadWithStackSize(ptr noundef %0, ptr noundef %1, i64 noundef %2, ptr noundef %3) #0 {
  %5 = alloca ptr, align 8
  %6 = alloca ptr, align 8
  %7 = alloca i64, align 8
  %8 = alloca ptr, align 8
  %9 = alloca i32, align 4
  %10 = alloca ptr, align 8
  store ptr %0, ptr %5, align 8
  store ptr %1, ptr %6, align 8
  store i64 %2, ptr %7, align 8
  store ptr %3, ptr %8, align 8
  call void @llvm.lifetime.start.p0(i64 4, ptr %9) #6
  %11 = call i32 @SDL_CreateProperties_REAL()
  store i32 %11, ptr %9, align 4
  %12 = load i32, ptr %9, align 4
  %13 = load ptr, ptr %5, align 8
  %14 = call zeroext i1 @SDL_SetPointerProperty_REAL(i32 noundef %12, ptr noundef @.str.3, ptr noundef %13)
  %15 = load i32, ptr %9, align 4
  %16 = load ptr, ptr %6, align 8
  %17 = call zeroext i1 @SDL_SetStringProperty_REAL(i32 noundef %15, ptr noundef @.str.4, ptr noundef %16)
  %18 = load i32, ptr %9, align 4
  %19 = load ptr, ptr %8, align 8
  %20 = call zeroext i1 @SDL_SetPointerProperty_REAL(i32 noundef %18, ptr noundef @.str.6, ptr noundef %19)
  %21 = load i32, ptr %9, align 4
  %22 = load i64, ptr %7, align 8
  %23 = call zeroext i1 @SDL_SetNumberProperty_REAL(i32 noundef %21, ptr noundef @.str.5, i64 noundef %22)
  call void @llvm.lifetime.start.p0(i64 8, ptr %10) #6
  %24 = load i32, ptr %9, align 4
  %25 = call ptr @SDL_CreateThreadWithPropertiesRuntime_REAL(i32 noundef %24, ptr noundef null, ptr noundef null)
  store ptr %25, ptr %10, align 8
  %26 = load i32, ptr %9, align 4
  call void @SDL_DestroyProperties_REAL(i32 noundef %26)
  %27 = load ptr, ptr %10, align 8
  call void @llvm.lifetime.end.p0(i64 8, ptr %10) #6
  call void @llvm.lifetime.end.p0(i64 4, ptr %9) #6
  ret ptr %27
}