; Function Attrs: nounwind uwtable
define hidden noundef ptr @SDL_CreateThreadWithStackSize(ptr noundef %0, ptr noundef %1, i64 noundef %2, ptr noundef %3) local_unnamed_addr #0 {
  %5 = tail call i32 @SDL_CreateProperties_REAL() #6
  %6 = tail call zeroext i1 @SDL_SetPointerProperty_REAL(i32 noundef %5, ptr noundef nonnull @.str.3, ptr noundef %0) #6
  %7 = tail call zeroext i1 @SDL_SetStringProperty_REAL(i32 noundef %5, ptr noundef nonnull @.str.4, ptr noundef %1) #6
  %8 = tail call zeroext i1 @SDL_SetPointerProperty_REAL(i32 noundef %5, ptr noundef nonnull @.str.6, ptr noundef %3) #6
  %9 = tail call zeroext i1 @SDL_SetNumberProperty_REAL(i32 noundef %5, ptr noundef nonnull @.str.5, i64 noundef %2) #6
  %10 = tail call ptr @SDL_CreateThreadWithPropertiesRuntime_REAL(i32 noundef %5, ptr noundef null, ptr noundef null)
  tail call void @SDL_DestroyProperties_REAL(i32 noundef %5) #6
  ret ptr %10
}